	.file	"task3.cpp"
	.section .rdata,"dr"
__ZStL19piecewise_construct:
	.space 1
.lcomm __ZStL8__ioinit,1,1
	.def	___main;	.scl	2;	.type	32;	.endef
	.align 4
LC2:
	.ascii "\202\242\245\244\250\342\245 \350\250\340\256\342\343 \242 \243\340\240\244\343\341\240\345, \254\250\255\343\342\240\345 \250 \341\245\252\343\255\244\240\345:\0"
LC3:
	.ascii "\202\255\240\347\240\253\245 \242\245\244\250\342\245 \243\340\240\244\343\341\353: \0"
LC4:
	.ascii "\222\245\257\245\340\354 \242\242\245\244\250\342\245 \254\250\255\343\342\353: \0"
LC5:
	.ascii "\210 \255\240\252\256\255\245\346 \242\242\245\244\250\342\245 \341\245\252\343\255\244\353: \0"
LC6:
	.ascii " \243\340\240\244\343\341\256\242, \0"
LC7:
	.ascii " \254\250\255\343\342, \0"
LC8:
	.ascii " \341\245\252\343\255\244 = \0"
LC9:
	.ascii " \243\340\240\244\343\341\256\242\0"
	.text
	.globl	_main
	.def	_main;	.scl	2;	.type	32;	.endef
_main:
LFB1543:
	.cfi_startproc
	leal	4(%esp), %ecx
	.cfi_def_cfa 1, 0
	andl	$-16, %esp
	pushl	-4(%ecx)
	pushl	%ebp
	.cfi_escape 0x10,0x5,0x2,0x75,0
	movl	%esp, %ebp
	pushl	%ecx
	.cfi_escape 0xf,0x3,0x75,0x7c,0x6
	subl	$84, %esp
	call	___main
	fldl	LC0
	fstpl	-16(%ebp)
	fldl	LC1
	fstpl	-24(%ebp)
	movl	$LC2, 4(%esp)
	movl	$__ZSt4cout, (%esp)
	call	__ZStlsISt11char_traitsIcEERSt13basic_ostreamIcT_ES5_PKc
	movl	$__ZSt4endlIcSt11char_traitsIcEERSt13basic_ostreamIT_T0_ES6_, (%esp)
	movl	%eax, %ecx
	call	__ZNSolsEPFRSoS_E
	subl	$4, %esp
	movl	$LC3, 4(%esp)
	movl	$__ZSt4cout, (%esp)
	call	__ZStlsISt11char_traitsIcEERSt13basic_ostreamIcT_ES5_PKc
	leal	-36(%ebp), %eax
	movl	%eax, (%esp)
	movl	$__ZSt3cin, %ecx
	call	__ZNSirsERi
	subl	$4, %esp
	movl	$LC4, 4(%esp)
	movl	$__ZSt4cout, (%esp)
	call	__ZStlsISt11char_traitsIcEERSt13basic_ostreamIcT_ES5_PKc
	leal	-40(%ebp), %eax
	movl	%eax, (%esp)
	movl	$__ZSt3cin, %ecx
	call	__ZNSirsERi
	subl	$4, %esp
	movl	$LC5, 4(%esp)
	movl	$__ZSt4cout, (%esp)
	call	__ZStlsISt11char_traitsIcEERSt13basic_ostreamIcT_ES5_PKc
	leal	-44(%ebp), %eax
	movl	%eax, (%esp)
	movl	$__ZSt3cin, %ecx
	call	__ZNSirsERi
	subl	$4, %esp
	movl	-44(%ebp), %eax
	movl	%eax, -60(%ebp)
	fildl	-60(%ebp)
	fldl	LC1
	fdivrp	%st, %st(1)
	movl	-40(%ebp), %eax
	movl	%eax, -60(%ebp)
	fildl	-60(%ebp)
	fldl	LC0
	fdivrp	%st, %st(1)
	faddp	%st, %st(1)
	movl	-36(%ebp), %eax
	movl	%eax, -60(%ebp)
	fildl	-60(%ebp)
	faddp	%st, %st(1)
	fstpl	-32(%ebp)
	movl	-36(%ebp), %eax
	movl	%eax, (%esp)
	movl	$__ZSt4cout, %ecx
	call	__ZNSolsEi
	subl	$4, %esp
	movl	$LC6, 4(%esp)
	movl	%eax, (%esp)
	call	__ZStlsISt11char_traitsIcEERSt13basic_ostreamIcT_ES5_PKc
	movl	%eax, %edx
	movl	-40(%ebp), %eax
	movl	%eax, (%esp)
	movl	%edx, %ecx
	call	__ZNSolsEi
	subl	$4, %esp
	movl	$LC7, 4(%esp)
	movl	%eax, (%esp)
	call	__ZStlsISt11char_traitsIcEERSt13basic_ostreamIcT_ES5_PKc
	movl	%eax, %edx
	movl	-44(%ebp), %eax
	movl	%eax, (%esp)
	movl	%edx, %ecx
	call	__ZNSolsEi
	subl	$4, %esp
	movl	$LC8, 4(%esp)
	movl	%eax, (%esp)
	call	__ZStlsISt11char_traitsIcEERSt13basic_ostreamIcT_ES5_PKc
	fldl	-32(%ebp)
	fstpl	(%esp)
	movl	%eax, %ecx
	call	__ZNSolsEd
	subl	$8, %esp
	movl	$LC9, 4(%esp)
	movl	%eax, (%esp)
	call	__ZStlsISt11char_traitsIcEERSt13basic_ostreamIcT_ES5_PKc
	movl	$0, %eax
	movl	-4(%ebp), %ecx
	.cfi_def_cfa 1, 0
	leave
	.cfi_restore 5
	leal	-4(%ecx), %esp
	.cfi_def_cfa 4, 4
	ret
	.cfi_endproc
LFE1543:
	.def	___tcf_0;	.scl	3;	.type	32;	.endef
___tcf_0:
LFB2034:
	.cfi_startproc
	pushl	%ebp
	.cfi_def_cfa_offset 8
	.cfi_offset 5, -8
	movl	%esp, %ebp
	.cfi_def_cfa_register 5
	subl	$8, %esp
	movl	$__ZStL8__ioinit, %ecx
	call	__ZNSt8ios_base4InitD1Ev
	leave
	.cfi_restore 5
	.cfi_def_cfa 4, 4
	ret
	.cfi_endproc
LFE2034:
	.def	__Z41__static_initialization_and_destruction_0ii;	.scl	3;	.type	32;	.endef
__Z41__static_initialization_and_destruction_0ii:
LFB2033:
	.cfi_startproc
	pushl	%ebp
	.cfi_def_cfa_offset 8
	.cfi_offset 5, -8
	movl	%esp, %ebp
	.cfi_def_cfa_register 5
	subl	$24, %esp
	cmpl	$1, 8(%ebp)
	jne	L6
	cmpl	$65535, 12(%ebp)
	jne	L6
	movl	$__ZStL8__ioinit, %ecx
	call	__ZNSt8ios_base4InitC1Ev
	movl	$___tcf_0, (%esp)
	call	_atexit
L6:
	nop
	leave
	.cfi_restore 5
	.cfi_def_cfa 4, 4
	ret
	.cfi_endproc
LFE2033:
	.def	__GLOBAL__sub_I_main;	.scl	3;	.type	32;	.endef
__GLOBAL__sub_I_main:
LFB2035:
	.cfi_startproc
	pushl	%ebp
	.cfi_def_cfa_offset 8
	.cfi_offset 5, -8
	movl	%esp, %ebp
	.cfi_def_cfa_register 5
	subl	$24, %esp
	movl	$65535, 4(%esp)
	movl	$1, (%esp)
	call	__Z41__static_initialization_and_destruction_0ii
	leave
	.cfi_restore 5
	.cfi_def_cfa 4, 4
	ret
	.cfi_endproc
LFE2035:
	.section	.ctors,"w"
	.align 4
	.long	__GLOBAL__sub_I_main
	.section .rdata,"dr"
	.align 8
LC0:
	.long	0
	.long	1078853632
	.align 8
LC1:
	.long	0
	.long	1085022208
	.ident	"GCC: (i686-posix-dwarf-rev1, Built by MinGW-W64 project) 7.2.0"
	.def	__ZStlsISt11char_traitsIcEERSt13basic_ostreamIcT_ES5_PKc;	.scl	2;	.type	32;	.endef
	.def	__ZSt4endlIcSt11char_traitsIcEERSt13basic_ostreamIT_T0_ES6_;	.scl	2;	.type	32;	.endef
	.def	__ZNSolsEPFRSoS_E;	.scl	2;	.type	32;	.endef
	.def	__ZNSirsERi;	.scl	2;	.type	32;	.endef
	.def	__ZNSolsEi;	.scl	2;	.type	32;	.endef
	.def	__ZNSolsEd;	.scl	2;	.type	32;	.endef
	.def	__ZNSt8ios_base4InitD1Ev;	.scl	2;	.type	32;	.endef
	.def	__ZNSt8ios_base4InitC1Ev;	.scl	2;	.type	32;	.endef
	.def	_atexit;	.scl	2;	.type	32;	.endef
